; Function Attrs: inlinehint mustprogress uwtable
define internal fastcc noalias noundef nonnull ptr @_ZL23lean_io_result_mk_errorP11lean_object(ptr noundef %0) unnamed_addr #6 {
  tail call void @lean_inc_heartbeat()
  %2 = tail call noalias ptr @mi_malloc_small(i64 noundef 24) #24
  %3 = icmp eq ptr %2, null
  br i1 %3, label %4, label %_ZL15lean_alloc_ctorjjj.exit

4:                                                ; preds = %1
  tail call void @lean_internal_panic_out_of_memory() #25
  unreachable

_ZL15lean_alloc_ctorjjj.exit:                     ; preds = %1
  %5 = getelementptr inbounds nuw i8, ptr %2, i64 4
  store i32 1, ptr %2, align 4, !tbaa !7
  store i32 16908312, ptr %5, align 4
  %6 = getelementptr inbounds nuw i8, ptr %2, i64 8
  store ptr %0, ptr %6, align 8, !tbaa !9
  %7 = getelementptr inbounds nuw i8, ptr %2, i64 16
  store ptr inttoptr (i64 1 to ptr), ptr %7, align 8, !tbaa !9
  ret ptr %2
}